target datalayout = "e-m:e-p270:32:32-p271:32:32-p272:64:64-i64:64-i128:128-f80:128-n8:16:32:64-S128"
target triple = "x86_64-unknown-linux-gnu"

%"class.std::shared_ptr" = type { %"class.std::__shared_ptr" }
%"class.std::__shared_ptr" = type { ptr, %"class.std::__shared_count" }
%"class.std::__shared_count" = type { ptr }
%"class.openvdb::v11_0::math::Vec3" = type { %"class.openvdb::v11_0::math::Tuple" }
%"class.openvdb::v11_0::math::Tuple" = type { [3 x double] }
%"class.openvdb::v11_0::math::Transform" = type { %"class.std::shared_ptr" }

; Function Attrs: mustprogress nounwind uwtable
define linkonce_odr noundef ptr @_ZNKSt12__shared_ptrIN7openvdb5v11_04math7MapBaseELN9__gnu_cxx12_Lock_policyE2EE3getEv(ptr noundef nonnull align 8 dereferenceable(16) %this) #5 comdat align 2 {
entry:
  %this.addr = alloca ptr, align 8
  store ptr %this, ptr %this.addr, align 8
  %this1 = load ptr, ptr %this.addr, align 8
  %_M_ptr = getelementptr inbounds %"class.std::__shared_ptr", ptr %this1, i32 0, i32 0
  %0 = load ptr, ptr %_M_ptr, align 8
  ret ptr %0
}

; Function Attrs: mustprogress nounwind uwtable
define linkonce_odr noundef ptr @_ZNKSt19__shared_ptr_accessIN7openvdb5v11_04math7MapBaseELN9__gnu_cxx12_Lock_policyE2ELb0ELb0EE6_M_getEv(ptr noundef nonnull align 1 dereferenceable(1) %this) #5 comdat align 2 {
entry:
  %this.addr = alloca ptr, align 8
  store ptr %this, ptr %this.addr, align 8
  %this1 = load ptr, ptr %this.addr, align 8
  %call = call noundef ptr @_ZNKSt12__shared_ptrIN7openvdb5v11_04math7MapBaseELN9__gnu_cxx12_Lock_policyE2EE3getEv(ptr noundef nonnull align 8 dereferenceable(16) %this1) #3
  ret ptr %call
}

; Function Attrs: mustprogress nounwind uwtable
define linkonce_odr noundef ptr @_ZNKSt19__shared_ptr_accessIN7openvdb5v11_04math7MapBaseELN9__gnu_cxx12_Lock_policyE2ELb0ELb0EEptEv(ptr noundef nonnull align 1 dereferenceable(1) %this) #5 comdat align 2 {
entry:
  %this.addr = alloca ptr, align 8
  store ptr %this, ptr %this.addr, align 8
  %this1 = load ptr, ptr %this.addr, align 8
  %call = call noundef ptr @_ZNKSt19__shared_ptr_accessIN7openvdb5v11_04math7MapBaseELN9__gnu_cxx12_Lock_policyE2ELb0ELb0EE6_M_getEv(ptr noundef nonnull align 1 dereferenceable(1) %this1) #3
  ret ptr %call
}

; Function Attrs: mustprogress nounwind uwtable
define linkonce_odr noundef nonnull align 8 dereferenceable(8) ptr @_ZSt3maxIdERKT_S2_S2_(ptr noundef nonnull align 8 dereferenceable(8) %__a, ptr noundef nonnull align 8 dereferenceable(8) %__b) #5 comdat {
entry:
  %retval = alloca ptr, align 8
  %__a.addr = alloca ptr, align 8
  %__b.addr = alloca ptr, align 8
  store ptr %__a, ptr %__a.addr, align 8
  store ptr %__b, ptr %__b.addr, align 8
  %0 = load ptr, ptr %__a.addr, align 8
  %1 = load double, ptr %0, align 8
  %2 = load ptr, ptr %__b.addr, align 8
  %3 = load double, ptr %2, align 8
  %cmp = fcmp olt double %1, %3
  br i1 %cmp, label %if.then, label %if.end

if.then:                                          ; preds = %entry
  %4 = load ptr, ptr %__b.addr, align 8
  store ptr %4, ptr %retval, align 8
  br label %return

if.end:                                           ; preds = %entry
  %5 = load ptr, ptr %__a.addr, align 8
  store ptr %5, ptr %retval, align 8
  br label %return

return:                                           ; preds = %if.end, %if.then
  %6 = load ptr, ptr %retval, align 8
  ret ptr %6
}

; Function Attrs: mustprogress nounwind uwtable
define linkonce_odr noundef nonnull align 8 dereferenceable(8) ptr @_ZSt3minIdERKT_S2_S2_(ptr noundef nonnull align 8 dereferenceable(8) %__a, ptr noundef nonnull align 8 dereferenceable(8) %__b) #5 comdat {
entry:
  %retval = alloca ptr, align 8
  %__a.addr = alloca ptr, align 8
  %__b.addr = alloca ptr, align 8
  store ptr %__a, ptr %__a.addr, align 8
  store ptr %__b, ptr %__b.addr, align 8
  %0 = load ptr, ptr %__b.addr, align 8
  %1 = load double, ptr %0, align 8
  %2 = load ptr, ptr %__a.addr, align 8
  %3 = load double, ptr %2, align 8
  %cmp = fcmp olt double %1, %3
  br i1 %cmp, label %if.then, label %if.end

if.then:                                          ; preds = %entry
  %4 = load ptr, ptr %__b.addr, align 8
  store ptr %4, ptr %retval, align 8
  br label %return

if.end:                                           ; preds = %entry
  %5 = load ptr, ptr %__a.addr, align 8
  store ptr %5, ptr %retval, align 8
  br label %return

return:                                           ; preds = %if.end, %if.then
  %6 = load ptr, ptr %retval, align 8
  ret ptr %6
}

; Function Attrs: mustprogress nounwind uwtable
define linkonce_odr noundef nonnull align 8 dereferenceable(8) ptr @_ZN7openvdb5v11_04math4Vec3IdEclEi(ptr noundef nonnull align 8 dereferenceable(24) %this, i32 noundef %i) #5 comdat align 2 {
entry:
  %this.addr = alloca ptr, align 8
  %i.addr = alloca i32, align 4
  store ptr %this, ptr %this.addr, align 8
  store i32 %i, ptr %i.addr, align 4
  %this1 = load ptr, ptr %this.addr, align 8
  %mm = getelementptr inbounds %"class.openvdb::v11_0::math::Tuple", ptr %this1, i32 0, i32 0
  %0 = load i32, ptr %i.addr, align 4
  %idxprom = sext i32 %0 to i64
  %arrayidx = getelementptr inbounds [3 x double], ptr %mm, i64 0, i64 %idxprom
  ret ptr %arrayidx
}

; Function Attrs: mustprogress uwtable
define linkonce_odr void @_ZNK7openvdb5v11_04math9Transform12worldToIndexERKNS1_4Vec3IdEE(ptr noalias sret(%"class.openvdb::v11_0::math::Vec3") align 8 %agg.result, ptr noundef nonnull align 8 dereferenceable(16) %this, ptr noundef nonnull align 8 dereferenceable(24) %xyz) #4 comdat align 2 {
entry:
  %this.addr = alloca ptr, align 8
  %xyz.addr = alloca ptr, align 8
  store ptr %this, ptr %this.addr, align 8
  store ptr %xyz, ptr %xyz.addr, align 8
  %this1 = load ptr, ptr %this.addr, align 8
  %mMap = getelementptr inbounds %"class.openvdb::v11_0::math::Transform", ptr %this1, i32 0, i32 0
  %call = call noundef ptr @_ZNKSt19__shared_ptr_accessIN7openvdb5v11_04math7MapBaseELN9__gnu_cxx12_Lock_policyE2ELb0ELb0EEptEv(ptr noundef nonnull align 1 dereferenceable(1) %mMap) #3
  %0 = load ptr, ptr %xyz.addr, align 8
  %vtable = load ptr, ptr %call, align 8
  %vfn = getelementptr inbounds ptr, ptr %vtable, i64 8
  %1 = load ptr, ptr %vfn, align 8
  call void %1(ptr sret(%"class.openvdb::v11_0::math::Vec3") align 8 %agg.result, ptr noundef nonnull align 8 dereferenceable(8) %call, ptr noundef nonnull align 8 dereferenceable(24) %0)
  ret void
}

; Function Attrs: mustprogress nounwind uwtable
define linkonce_odr void @_ZN7openvdb5v11_04math4Vec3IdEC2Eddd(ptr noundef nonnull align 8 dereferenceable(24) %this, double noundef %x, double noundef %y, double noundef %z) unnamed_addr #5 comdat align 2 {
entry:
  %this.addr = alloca ptr, align 8
  %x.addr = alloca double, align 8
  %y.addr = alloca double, align 8
  %z.addr = alloca double, align 8
  store ptr %this, ptr %this.addr, align 8
  store double %x, ptr %x.addr, align 8
  store double %y, ptr %y.addr, align 8
  store double %z, ptr %z.addr, align 8
  %this1 = load ptr, ptr %this.addr, align 8
  %0 = load double, ptr %x.addr, align 8
  %mm = getelementptr inbounds %"class.openvdb::v11_0::math::Tuple", ptr %this1, i32 0, i32 0
  %arrayidx = getelementptr inbounds [3 x double], ptr %mm, i64 0, i64 0
  store double %0, ptr %arrayidx, align 8
  %1 = load double, ptr %y.addr, align 8
  %mm2 = getelementptr inbounds %"class.openvdb::v11_0::math::Tuple", ptr %this1, i32 0, i32 0
  %arrayidx3 = getelementptr inbounds [3 x double], ptr %mm2, i64 0, i64 1
  store double %1, ptr %arrayidx3, align 8
  %2 = load double, ptr %z.addr, align 8
  %mm4 = getelementptr inbounds %"class.openvdb::v11_0::math::Tuple", ptr %this1, i32 0, i32 0
  %arrayidx5 = getelementptr inbounds [3 x double], ptr %mm4, i64 0, i64 2
  store double %2, ptr %arrayidx5, align 8
  ret void
}

; Function Attrs: mustprogress nounwind uwtable
define linkonce_odr noundef double @_ZNK7openvdb5v11_04math4Vec3IdEclEi(ptr noundef nonnull align 8 dereferenceable(24) %this, i32 noundef %i) #5 comdat align 2 {
entry:
  %this.addr = alloca ptr, align 8
  %i.addr = alloca i32, align 4
  store ptr %this, ptr %this.addr, align 8
  store i32 %i, ptr %i.addr, align 4
  %this1 = load ptr, ptr %this.addr, align 8
  %mm = getelementptr inbounds %"class.openvdb::v11_0::math::Tuple", ptr %this1, i32 0, i32 0
  %0 = load i32, ptr %i.addr, align 4
  %idxprom = sext i32 %0 to i64
  %arrayidx = getelementptr inbounds [3 x double], ptr %mm, i64 0, i64 %idxprom
  %1 = load double, ptr %arrayidx, align 8
  ret double %1
}

; Function Attrs: mustprogress uwtable
define void @_ZN7openvdb5v11_04math15calculateBoundsERKNS1_9TransformERKNS1_4Vec3IdEES8_RS6_S9_(ptr noundef nonnull align 8 dereferenceable(16) %t, ptr noundef nonnull align 8 dereferenceable(24) %minWS, ptr noundef nonnull align 8 dereferenceable(24) %maxWS, ptr noundef nonnull align 8 dereferenceable(24) %minIS, ptr noundef nonnull align 8 dereferenceable(24) %maxIS) #4 {
entry:
  %t.addr = alloca ptr, align 8
  %minWS.addr = alloca ptr, align 8
  %maxWS.addr = alloca ptr, align 8
  %minIS.addr = alloca ptr, align 8
  %maxIS.addr = alloca ptr, align 8
  %corners = alloca [8 x %"class.openvdb::v11_0::math::Vec3"], align 16
  %ref.tmp = alloca %"class.openvdb::v11_0::math::Vec3", align 8
  %ref.tmp4 = alloca %"class.openvdb::v11_0::math::Vec3", align 8
  %ref.tmp9 = alloca %"class.openvdb::v11_0::math::Vec3", align 8
  %ref.tmp14 = alloca %"class.openvdb::v11_0::math::Vec3", align 8
  %ref.tmp19 = alloca %"class.openvdb::v11_0::math::Vec3", align 8
  %ref.tmp25 = alloca %"class.openvdb::v11_0::math::Vec3", align 8
  %pre_image = alloca %"class.openvdb::v11_0::math::Vec3", align 8
  %ref.tmp30 = alloca %"class.openvdb::v11_0::math::Vec3", align 8
  %i = alloca i32, align 4
  %ref.tmp32 = alloca %"class.openvdb::v11_0::math::Vec3", align 8
  %j = alloca i32, align 4
  store ptr %t, ptr %t.addr, align 8
  store ptr %minWS, ptr %minWS.addr, align 8
  store ptr %maxWS, ptr %maxWS.addr, align 8
  store ptr %minIS, ptr %minIS.addr, align 8
  store ptr %maxIS, ptr %maxIS.addr, align 8
  %0 = load ptr, ptr %minWS.addr, align 8
  %arrayidx = getelementptr inbounds [8 x %"class.openvdb::v11_0::math::Vec3"], ptr %corners, i64 0, i64 0
  call void @llvm.memcpy.p0.p0.i64(ptr align 16 %arrayidx, ptr align 8 %0, i64 24, i1 false)
  %1 = load ptr, ptr %maxWS.addr, align 8
  %call = call noundef double @_ZNK7openvdb5v11_04math4Vec3IdEclEi(ptr noundef nonnull align 8 dereferenceable(24) %1, i32 noundef 0)
  %2 = load ptr, ptr %minWS.addr, align 8
  %call1 = call noundef double @_ZNK7openvdb5v11_04math4Vec3IdEclEi(ptr noundef nonnull align 8 dereferenceable(24) %2, i32 noundef 1)
  %3 = load ptr, ptr %minWS.addr, align 8
  %call2 = call noundef double @_ZNK7openvdb5v11_04math4Vec3IdEclEi(ptr noundef nonnull align 8 dereferenceable(24) %3, i32 noundef 2)
  call void @_ZN7openvdb5v11_04math4Vec3IdEC2Eddd(ptr noundef nonnull align 8 dereferenceable(24) %ref.tmp, double noundef %call, double noundef %call1, double noundef %call2)
  %arrayidx3 = getelementptr inbounds [8 x %"class.openvdb::v11_0::math::Vec3"], ptr %corners, i64 0, i64 1
  call void @llvm.memcpy.p0.p0.i64(ptr align 8 %arrayidx3, ptr align 8 %ref.tmp, i64 24, i1 false)
  %4 = load ptr, ptr %maxWS.addr, align 8
  %call5 = call noundef double @_ZNK7openvdb5v11_04math4Vec3IdEclEi(ptr noundef nonnull align 8 dereferenceable(24) %4, i32 noundef 0)
  %5 = load ptr, ptr %maxWS.addr, align 8
  %call6 = call noundef double @_ZNK7openvdb5v11_04math4Vec3IdEclEi(ptr noundef nonnull align 8 dereferenceable(24) %5, i32 noundef 1)
  %6 = load ptr, ptr %minWS.addr, align 8
  %call7 = call noundef double @_ZNK7openvdb5v11_04math4Vec3IdEclEi(ptr noundef nonnull align 8 dereferenceable(24) %6, i32 noundef 2)
  call void @_ZN7openvdb5v11_04math4Vec3IdEC2Eddd(ptr noundef nonnull align 8 dereferenceable(24) %ref.tmp4, double noundef %call5, double noundef %call6, double noundef %call7)
  %arrayidx8 = getelementptr inbounds [8 x %"class.openvdb::v11_0::math::Vec3"], ptr %corners, i64 0, i64 2
  call void @llvm.memcpy.p0.p0.i64(ptr align 16 %arrayidx8, ptr align 8 %ref.tmp4, i64 24, i1 false)
  %7 = load ptr, ptr %minWS.addr, align 8
  %call10 = call noundef double @_ZNK7openvdb5v11_04math4Vec3IdEclEi(ptr noundef nonnull align 8 dereferenceable(24) %7, i32 noundef 0)
  %8 = load ptr, ptr %maxWS.addr, align 8
  %call11 = call noundef double @_ZNK7openvdb5v11_04math4Vec3IdEclEi(ptr noundef nonnull align 8 dereferenceable(24) %8, i32 noundef 1)
  %9 = load ptr, ptr %minWS.addr, align 8
  %call12 = call noundef double @_ZNK7openvdb5v11_04math4Vec3IdEclEi(ptr noundef nonnull align 8 dereferenceable(24) %9, i32 noundef 2)
  call void @_ZN7openvdb5v11_04math4Vec3IdEC2Eddd(ptr noundef nonnull align 8 dereferenceable(24) %ref.tmp9, double noundef %call10, double noundef %call11, double noundef %call12)
  %arrayidx13 = getelementptr inbounds [8 x %"class.openvdb::v11_0::math::Vec3"], ptr %corners, i64 0, i64 3
  call void @llvm.memcpy.p0.p0.i64(ptr align 8 %arrayidx13, ptr align 8 %ref.tmp9, i64 24, i1 false)
  %10 = load ptr, ptr %minWS.addr, align 8
  %call15 = call noundef double @_ZNK7openvdb5v11_04math4Vec3IdEclEi(ptr noundef nonnull align 8 dereferenceable(24) %10, i32 noundef 0)
  %11 = load ptr, ptr %minWS.addr, align 8
  %call16 = call noundef double @_ZNK7openvdb5v11_04math4Vec3IdEclEi(ptr noundef nonnull align 8 dereferenceable(24) %11, i32 noundef 1)
  %12 = load ptr, ptr %maxWS.addr, align 8
  %call17 = call noundef double @_ZNK7openvdb5v11_04math4Vec3IdEclEi(ptr noundef nonnull align 8 dereferenceable(24) %12, i32 noundef 2)
  call void @_ZN7openvdb5v11_04math4Vec3IdEC2Eddd(ptr noundef nonnull align 8 dereferenceable(24) %ref.tmp14, double noundef %call15, double noundef %call16, double noundef %call17)
  %arrayidx18 = getelementptr inbounds [8 x %"class.openvdb::v11_0::math::Vec3"], ptr %corners, i64 0, i64 4
  call void @llvm.memcpy.p0.p0.i64(ptr align 16 %arrayidx18, ptr align 8 %ref.tmp14, i64 24, i1 false)
  %13 = load ptr, ptr %maxWS.addr, align 8
  %call20 = call noundef double @_ZNK7openvdb5v11_04math4Vec3IdEclEi(ptr noundef nonnull align 8 dereferenceable(24) %13, i32 noundef 0)
  %14 = load ptr, ptr %minWS.addr, align 8
  %call21 = call noundef double @_ZNK7openvdb5v11_04math4Vec3IdEclEi(ptr noundef nonnull align 8 dereferenceable(24) %14, i32 noundef 1)
  %15 = load ptr, ptr %maxWS.addr, align 8
  %call22 = call noundef double @_ZNK7openvdb5v11_04math4Vec3IdEclEi(ptr noundef nonnull align 8 dereferenceable(24) %15, i32 noundef 2)
  call void @_ZN7openvdb5v11_04math4Vec3IdEC2Eddd(ptr noundef nonnull align 8 dereferenceable(24) %ref.tmp19, double noundef %call20, double noundef %call21, double noundef %call22)
  %arrayidx23 = getelementptr inbounds [8 x %"class.openvdb::v11_0::math::Vec3"], ptr %corners, i64 0, i64 5
  call void @llvm.memcpy.p0.p0.i64(ptr align 8 %arrayidx23, ptr align 8 %ref.tmp19, i64 24, i1 false)
  %16 = load ptr, ptr %maxWS.addr, align 8
  %arrayidx24 = getelementptr inbounds [8 x %"class.openvdb::v11_0::math::Vec3"], ptr %corners, i64 0, i64 6
  call void @llvm.memcpy.p0.p0.i64(ptr align 16 %arrayidx24, ptr align 8 %16, i64 24, i1 false)
  %17 = load ptr, ptr %minWS.addr, align 8
  %call26 = call noundef double @_ZNK7openvdb5v11_04math4Vec3IdEclEi(ptr noundef nonnull align 8 dereferenceable(24) %17, i32 noundef 0)
  %18 = load ptr, ptr %maxWS.addr, align 8
  %call27 = call noundef double @_ZNK7openvdb5v11_04math4Vec3IdEclEi(ptr noundef nonnull align 8 dereferenceable(24) %18, i32 noundef 1)
  %19 = load ptr, ptr %maxWS.addr, align 8
  %call28 = call noundef double @_ZNK7openvdb5v11_04math4Vec3IdEclEi(ptr noundef nonnull align 8 dereferenceable(24) %19, i32 noundef 2)
  call void @_ZN7openvdb5v11_04math4Vec3IdEC2Eddd(ptr noundef nonnull align 8 dereferenceable(24) %ref.tmp25, double noundef %call26, double noundef %call27, double noundef %call28)
  %arrayidx29 = getelementptr inbounds [8 x %"class.openvdb::v11_0::math::Vec3"], ptr %corners, i64 0, i64 7
  call void @llvm.memcpy.p0.p0.i64(ptr align 8 %arrayidx29, ptr align 8 %ref.tmp25, i64 24, i1 false)
  %20 = load ptr, ptr %t.addr, align 8
  %arrayidx31 = getelementptr inbounds [8 x %"class.openvdb::v11_0::math::Vec3"], ptr %corners, i64 0, i64 0
  call void @_ZNK7openvdb5v11_04math9Transform12worldToIndexERKNS1_4Vec3IdEE(ptr sret(%"class.openvdb::v11_0::math::Vec3") align 8 %ref.tmp30, ptr noundef nonnull align 8 dereferenceable(16) %20, ptr noundef nonnull align 8 dereferenceable(24) %arrayidx31)
  %21 = load ptr, ptr %minIS.addr, align 8
  call void @llvm.memcpy.p0.p0.i64(ptr align 8 %21, ptr align 8 %ref.tmp30, i64 24, i1 false)
  %22 = load ptr, ptr %minIS.addr, align 8
  %23 = load ptr, ptr %maxIS.addr, align 8
  call void @llvm.memcpy.p0.p0.i64(ptr align 8 %23, ptr align 8 %22, i64 24, i1 false)
  store i32 1, ptr %i, align 4
  br label %for.cond

for.cond:                                         ; preds = %for.inc45, %entry
  %24 = load i32, ptr %i, align 4
  %cmp = icmp slt i32 %24, 8
  br i1 %cmp, label %for.body, label %for.end47

for.body:                                         ; preds = %for.cond
  %25 = load ptr, ptr %t.addr, align 8
  %26 = load i32, ptr %i, align 4
  %idxprom = sext i32 %26 to i64
  %arrayidx33 = getelementptr inbounds [8 x %"class.openvdb::v11_0::math::Vec3"], ptr %corners, i64 0, i64 %idxprom
  call void @_ZNK7openvdb5v11_04math9Transform12worldToIndexERKNS1_4Vec3IdEE(ptr sret(%"class.openvdb::v11_0::math::Vec3") align 8 %ref.tmp32, ptr noundef nonnull align 8 dereferenceable(16) %25, ptr noundef nonnull align 8 dereferenceable(24) %arrayidx33)
  call void @llvm.memcpy.p0.p0.i64(ptr align 8 %pre_image, ptr align 8 %ref.tmp32, i64 24, i1 false)
  store i32 0, ptr %j, align 4
  br label %for.cond34

for.cond34:                                       ; preds = %for.inc, %for.body
  %27 = load i32, ptr %j, align 4
  %cmp35 = icmp slt i32 %27, 3
  br i1 %cmp35, label %for.body36, label %for.end

for.body36:                                       ; preds = %for.cond34
  %28 = load ptr, ptr %minIS.addr, align 8
  %29 = load i32, ptr %j, align 4
  %call37 = call noundef nonnull align 8 dereferenceable(8) ptr @_ZN7openvdb5v11_04math4Vec3IdEclEi(ptr noundef nonnull align 8 dereferenceable(24) %28, i32 noundef %29)
  %30 = load i32, ptr %j, align 4
  %call38 = call noundef nonnull align 8 dereferenceable(8) ptr @_ZN7openvdb5v11_04math4Vec3IdEclEi(ptr noundef nonnull align 8 dereferenceable(24) %pre_image, i32 noundef %30)
  %call39 = call noundef nonnull align 8 dereferenceable(8) ptr @_ZSt3minIdERKT_S2_S2_(ptr noundef nonnull align 8 dereferenceable(8) %call37, ptr noundef nonnull align 8 dereferenceable(8) %call38)
  %31 = load double, ptr %call39, align 8
  %32 = load ptr, ptr %minIS.addr, align 8
  %33 = load i32, ptr %j, align 4
  %call40 = call noundef nonnull align 8 dereferenceable(8) ptr @_ZN7openvdb5v11_04math4Vec3IdEclEi(ptr noundef nonnull align 8 dereferenceable(24) %32, i32 noundef %33)
  store double %31, ptr %call40, align 8
  %34 = load ptr, ptr %maxIS.addr, align 8
  %35 = load i32, ptr %j, align 4
  %call41 = call noundef nonnull align 8 dereferenceable(8) ptr @_ZN7openvdb5v11_04math4Vec3IdEclEi(ptr noundef nonnull align 8 dereferenceable(24) %34, i32 noundef %35)
  %36 = load i32, ptr %j, align 4
  %call42 = call noundef nonnull align 8 dereferenceable(8) ptr @_ZN7openvdb5v11_04math4Vec3IdEclEi(ptr noundef nonnull align 8 dereferenceable(24) %pre_image, i32 noundef %36)
  %call43 = call noundef nonnull align 8 dereferenceable(8) ptr @_ZSt3maxIdERKT_S2_S2_(ptr noundef nonnull align 8 dereferenceable(8) %call41, ptr noundef nonnull align 8 dereferenceable(8) %call42)
  %37 = load double, ptr %call43, align 8
  %38 = load ptr, ptr %maxIS.addr, align 8
  %39 = load i32, ptr %j, align 4
  %call44 = call noundef nonnull align 8 dereferenceable(8) ptr @_ZN7openvdb5v11_04math4Vec3IdEclEi(ptr noundef nonnull align 8 dereferenceable(24) %38, i32 noundef %39)
  store double %37, ptr %call44, align 8
  br label %for.inc

for.inc:                                          ; preds = %for.body36
  %40 = load i32, ptr %j, align 4
  %inc = add nsw i32 %40, 1
  store i32 %inc, ptr %j, align 4
  br label %for.cond34, !llvm.loop !9

for.end:                                          ; preds = %for.cond34
  br label %for.inc45

for.inc45:                                        ; preds = %for.end
  %41 = load i32, ptr %i, align 4
  %inc46 = add nsw i32 %41, 1
  store i32 %inc46, ptr %i, align 4
  br label %for.cond, !llvm.loop !10

for.end47:                                        ; preds = %for.cond
  ret void
}