; Function Attrs: mustprogress uwtable
define void @_ZN7openvdb5v11_04math15calculateBoundsERKNS1_9TransformERKNS1_4Vec3IdEES8_RS6_S9_(ptr nocapture noundef nonnull readonly align 8 dereferenceable(16) %t, ptr nocapture noundef nonnull readonly align 8 dereferenceable(24) %minWS, ptr nocapture noundef nonnull readonly align 8 dereferenceable(24) %maxWS, ptr nocapture noundef nonnull align 8 dereferenceable(24) %minIS, ptr nocapture noundef nonnull align 8 dereferenceable(24) %maxIS) local_unnamed_addr #3 {
entry:
  %corners = alloca [8 x %"class.openvdb::v11_0::math::Vec3"], align 16
  %pre_image = alloca %"class.openvdb::v11_0::math::Vec3", align 8
  %ref.tmp30 = alloca %"class.openvdb::v11_0::math::Vec3", align 8
  %ref.tmp32 = alloca %"class.openvdb::v11_0::math::Vec3", align 8
  call void @llvm.memcpy.p0.p0.i64(ptr noundef nonnull align 16 dereferenceable(24) %corners, ptr noundef nonnull align 8 dereferenceable(24) %minWS, i64 24, i1 false)
  %arrayidx.i = getelementptr inbounds i8, ptr %minWS, i64 8
  %arrayidx3 = getelementptr inbounds i8, ptr %corners, i64 24
  %ref.tmp.sroa.2.0.arrayidx3.sroa_idx = getelementptr inbounds i8, ptr %corners, i64 32
  %0 = load <2 x double>, ptr %arrayidx.i, align 8
  store <2 x double> %0, ptr %ref.tmp.sroa.2.0.arrayidx3.sroa_idx, align 16
  %arrayidx8 = getelementptr inbounds i8, ptr %corners, i64 48
  %1 = load <2 x double>, ptr %maxWS, align 8
  %2 = extractelement <2 x double> %1, i64 0
  store double %2, ptr %arrayidx3, align 8
  store <2 x double> %1, ptr %arrayidx8, align 16
  %ref.tmp4.sroa.3.0.arrayidx8.sroa_idx = getelementptr inbounds i8, ptr %corners, i64 64
  %3 = extractelement <2 x double> %0, i64 1
  store double %3, ptr %ref.tmp4.sroa.3.0.arrayidx8.sroa_idx, align 16
  %4 = load double, ptr %minWS, align 8
  %arrayidx13 = getelementptr inbounds i8, ptr %corners, i64 72
  store double %4, ptr %arrayidx13, align 8
  %ref.tmp9.sroa.2.0.arrayidx13.sroa_idx = getelementptr inbounds i8, ptr %corners, i64 80
  %5 = extractelement <2 x double> %1, i64 1
  store double %5, ptr %ref.tmp9.sroa.2.0.arrayidx13.sroa_idx, align 16
  %ref.tmp9.sroa.3.0.arrayidx13.sroa_idx = getelementptr inbounds i8, ptr %corners, i64 88
  store double %3, ptr %ref.tmp9.sroa.3.0.arrayidx13.sroa_idx, align 8
  %arrayidx.i44 = getelementptr inbounds i8, ptr %maxWS, i64 16
  %6 = load double, ptr %arrayidx.i44, align 8
  %arrayidx18 = getelementptr inbounds i8, ptr %corners, i64 96
  store double %4, ptr %arrayidx18, align 16
  %ref.tmp14.sroa.2.0.arrayidx18.sroa_idx = getelementptr inbounds i8, ptr %corners, i64 104
  %7 = extractelement <2 x double> %0, i64 0
  store double %7, ptr %ref.tmp14.sroa.2.0.arrayidx18.sroa_idx, align 8
  %ref.tmp14.sroa.3.0.arrayidx18.sroa_idx = getelementptr inbounds i8, ptr %corners, i64 112
  store double %6, ptr %ref.tmp14.sroa.3.0.arrayidx18.sroa_idx, align 16
  %arrayidx23 = getelementptr inbounds i8, ptr %corners, i64 120
  store double %2, ptr %arrayidx23, align 8
  %ref.tmp19.sroa.2.0.arrayidx23.sroa_idx = getelementptr inbounds i8, ptr %corners, i64 128
  store double %7, ptr %ref.tmp19.sroa.2.0.arrayidx23.sroa_idx, align 16
  %ref.tmp19.sroa.3.0.arrayidx23.sroa_idx = getelementptr inbounds i8, ptr %corners, i64 136
  store double %6, ptr %ref.tmp19.sroa.3.0.arrayidx23.sroa_idx, align 8
  %arrayidx24 = getelementptr inbounds i8, ptr %corners, i64 144
  call void @llvm.memcpy.p0.p0.i64(ptr noundef nonnull align 16 dereferenceable(24) %arrayidx24, ptr noundef nonnull align 8 dereferenceable(24) %maxWS, i64 24, i1 false)
  %arrayidx29 = getelementptr inbounds i8, ptr %corners, i64 168
  store double %4, ptr %arrayidx29, align 8
  %ref.tmp25.sroa.2.0.arrayidx29.sroa_idx = getelementptr inbounds i8, ptr %corners, i64 176
  store double %5, ptr %ref.tmp25.sroa.2.0.arrayidx29.sroa_idx, align 16
  %ref.tmp25.sroa.3.0.arrayidx29.sroa_idx = getelementptr inbounds i8, ptr %corners, i64 184
  store double %6, ptr %ref.tmp25.sroa.3.0.arrayidx29.sroa_idx, align 8
  %8 = load ptr, ptr %t, align 8, !noalias !159
  %vtable.i = load ptr, ptr %8, align 8, !noalias !159
  %vfn.i = getelementptr inbounds i8, ptr %vtable.i, i64 64
  %9 = load ptr, ptr %vfn.i, align 8, !noalias !159
  call void %9(ptr nonnull sret(%"class.openvdb::v11_0::math::Vec3") align 8 %ref.tmp30, ptr noundef nonnull align 8 dereferenceable(8) %8, ptr noundef nonnull align 8 dereferenceable(24) %corners)
  call void @llvm.memcpy.p0.p0.i64(ptr noundef nonnull align 8 dereferenceable(24) %minIS, ptr noundef nonnull align 8 dereferenceable(24) %ref.tmp30, i64 24, i1 false)
  call void @llvm.memcpy.p0.p0.i64(ptr noundef nonnull align 8 dereferenceable(24) %maxIS, ptr noundef nonnull align 8 dereferenceable(24) %ref.tmp30, i64 24, i1 false)
  br label %for.body

for.body:                                         ; preds = %entry, %for.inc45
  %indvars.iv73 = phi i64 [ 1, %entry ], [ %indvars.iv.next74, %for.inc45 ]
  %arrayidx33 = getelementptr inbounds [8 x %"class.openvdb::v11_0::math::Vec3"], ptr %corners, i64 0, i64 %indvars.iv73
  %10 = load ptr, ptr %t, align 8, !noalias !162
  %vtable.i55 = load ptr, ptr %10, align 8, !noalias !162
  %vfn.i56 = getelementptr inbounds i8, ptr %vtable.i55, i64 64
  %11 = load ptr, ptr %vfn.i56, align 8, !noalias !162
  call void %11(ptr nonnull sret(%"class.openvdb::v11_0::math::Vec3") align 8 %ref.tmp32, ptr noundef nonnull align 8 dereferenceable(8) %10, ptr noundef nonnull align 8 dereferenceable(24) %arrayidx33)
  call void @llvm.memcpy.p0.p0.i64(ptr noundef nonnull align 8 dereferenceable(24) %pre_image, ptr noundef nonnull align 8 dereferenceable(24) %ref.tmp32, i64 24, i1 false)
  br label %for.body36

for.body36:                                       ; preds = %for.body, %for.body36
  %indvars.iv = phi i64 [ 0, %for.body ], [ %indvars.iv.next, %for.body36 ]
  %arrayidx.i57 = getelementptr inbounds [3 x double], ptr %minIS, i64 0, i64 %indvars.iv
  %arrayidx.i59 = getelementptr inbounds [3 x double], ptr %pre_image, i64 0, i64 %indvars.iv
  %12 = load double, ptr %arrayidx.i59, align 8
  %13 = load double, ptr %arrayidx.i57, align 8
  %cmp.i = fcmp olt double %12, %13
  %14 = select i1 %cmp.i, double %12, double %13
  store double %14, ptr %arrayidx.i57, align 8
  %arrayidx.i63 = getelementptr inbounds [3 x double], ptr %maxIS, i64 0, i64 %indvars.iv
  %15 = load double, ptr %arrayidx.i63, align 8
  %cmp.i66 = fcmp olt double %15, %12
  %16 = select i1 %cmp.i66, double %12, double %15
  store double %16, ptr %arrayidx.i63, align 8
  %indvars.iv.next = add nuw nsw i64 %indvars.iv, 1
  %exitcond.not = icmp eq i64 %indvars.iv.next, 3
  br i1 %exitcond.not, label %for.inc45, label %for.body36, !llvm.loop !165

for.inc45:                                        ; preds = %for.body36
  %indvars.iv.next74 = add nuw nsw i64 %indvars.iv73, 1
  %exitcond76.not = icmp eq i64 %indvars.iv.next74, 8
  br i1 %exitcond76.not, label %for.end47, label %for.body, !llvm.loop !166

for.end47:                                        ; preds = %for.inc45
  ret void
}